target datalayout = "e-m:e-p270:32:32-p271:32:32-p272:64:64-i64:64-i128:128-f80:128-n8:16:32:64-S128"
target triple = "x86_64-pc-linux-gnu"

%struct._lv_scale_t = type <{ %struct._lv_obj_t, %struct.lv_ll_t, ptr, i32, i32, i32, i64, i32, i32, i32, i32, i32 }>
%struct._lv_obj_t = type { ptr, ptr, ptr, ptr, ptr, %struct.lv_area_t, i32, i16, i16 }
%struct.lv_area_t = type { i32, i32, i32, i32 }
%struct.lv_ll_t = type { i32, ptr, ptr }

@lv_scale_class = constant { ptr, ptr, ptr, ptr, ptr, ptr, i32, i32, i8, i8, i8, [5 x i8] } { ptr @lv_obj_class, ptr @lv_scale_constructor, ptr @lv_scale_destructor, ptr @lv_scale_event, ptr null, ptr @.str, i32 0, i32 0, i8 -127, i8 8, i8 0, [5 x i8] zeroinitializer }, align 8

; Function Attrs: nounwind uwtable
define internal void @lv_scale_event(ptr noundef %0, ptr noundef %1) #0 {
  %3 = alloca ptr, align 8
  %4 = alloca ptr, align 8
  %5 = alloca i32, align 4
  %6 = alloca i32, align 4
  %7 = alloca i32, align 4
  %8 = alloca ptr, align 8
  %9 = alloca ptr, align 8
  store ptr %0, ptr %3, align 8, !tbaa !3
  store ptr %1, ptr %4, align 8, !tbaa !3
  call void @llvm.lifetime.start.p0(i64 4, ptr %5) #7
  %10 = load ptr, ptr %4, align 8, !tbaa !3
  %11 = call i32 @lv_obj_event_base(ptr noundef @lv_scale_class, ptr noundef %10)
  store i32 %11, ptr %5, align 4, !tbaa !25
  %12 = load i32, ptr %5, align 4, !tbaa !25
  %13 = icmp ne i32 %12, 1
  br i1 %13, label %14, label %15

14:                                               ; preds = %2
  store i32 1, ptr %6, align 4
  br label %94

15:                                               ; preds = %2
  call void @llvm.lifetime.start.p0(i64 4, ptr %7) #7
  %16 = load ptr, ptr %4, align 8, !tbaa !3
  %17 = call i32 @lv_event_get_code(ptr noundef %16)
  store i32 %17, ptr %7, align 4, !tbaa !25
  call void @llvm.lifetime.start.p0(i64 8, ptr %8) #7
  %18 = load ptr, ptr %4, align 8, !tbaa !3
  %19 = call ptr @lv_event_get_current_target(ptr noundef %18)
  store ptr %19, ptr %8, align 8, !tbaa !3
  call void @llvm.lifetime.start.p0(i64 8, ptr %9) #7
  %20 = load ptr, ptr %8, align 8, !tbaa !3
  store ptr %20, ptr %9, align 8, !tbaa !3
  %21 = load i32, ptr %7, align 4, !tbaa !25
  %22 = icmp eq i32 %21, 29
  br i1 %22, label %23, label %53

23:                                               ; preds = %15
  %24 = load ptr, ptr %9, align 8, !tbaa !3
  %25 = getelementptr inbounds nuw %struct._lv_scale_t, ptr %24, i32 0, i32 6
  %26 = load i64, ptr %25, align 4
  %27 = lshr i64 %26, 31
  %28 = and i64 %27, 1
  %29 = trunc i64 %28 to i32
  %30 = icmp eq i32 %29, 0
  br i1 %30, label %31, label %52

31:                                               ; preds = %23
  %32 = load ptr, ptr %8, align 8, !tbaa !3
  call void @scale_find_section_tick_idx(ptr noundef %32)
  %33 = load ptr, ptr %8, align 8, !tbaa !3
  call void @scale_calculate_main_compensation(ptr noundef %33)
  %34 = load ptr, ptr %9, align 8, !tbaa !3
  %35 = getelementptr inbounds nuw %struct._lv_scale_t, ptr %34, i32 0, i32 6
  %36 = load i64, ptr %35, align 4
  %37 = lshr i64 %36, 32
  %38 = and i64 %37, 1
  %39 = trunc i64 %38 to i32
  %40 = icmp ne i32 %39, 0
  br i1 %40, label %41, label %46

41:                                               ; preds = %31
  %42 = load ptr, ptr %8, align 8, !tbaa !3
  %43 = load ptr, ptr %4, align 8, !tbaa !3
  call void @scale_draw_main(ptr noundef %42, ptr noundef %43)
  %44 = load ptr, ptr %8, align 8, !tbaa !3
  %45 = load ptr, ptr %4, align 8, !tbaa !3
  call void @scale_draw_indicator(ptr noundef %44, ptr noundef %45)
  br label %51

46:                                               ; preds = %31
  %47 = load ptr, ptr %8, align 8, !tbaa !3
  %48 = load ptr, ptr %4, align 8, !tbaa !3
  call void @scale_draw_indicator(ptr noundef %47, ptr noundef %48)
  %49 = load ptr, ptr %8, align 8, !tbaa !3
  %50 = load ptr, ptr %4, align 8, !tbaa !3
  call void @scale_draw_main(ptr noundef %49, ptr noundef %50)
  br label %51

51:                                               ; preds = %46, %41
  br label %52

52:                                               ; preds = %51, %23
  br label %53

53:                                               ; preds = %52, %15
  %54 = load i32, ptr %7, align 4, !tbaa !25
  %55 = icmp eq i32 %54, 32
  br i1 %55, label %56, label %86

56:                                               ; preds = %53
  %57 = load ptr, ptr %9, align 8, !tbaa !3
  %58 = getelementptr inbounds nuw %struct._lv_scale_t, ptr %57, i32 0, i32 6
  %59 = load i64, ptr %58, align 4
  %60 = lshr i64 %59, 31
  %61 = and i64 %60, 1
  %62 = trunc i64 %61 to i32
  %63 = icmp eq i32 %62, 1
  br i1 %63, label %64, label %85

64:                                               ; preds = %56
  %65 = load ptr, ptr %8, align 8, !tbaa !3
  call void @scale_find_section_tick_idx(ptr noundef %65)
  %66 = load ptr, ptr %8, align 8, !tbaa !3
  call void @scale_calculate_main_compensation(ptr noundef %66)
  %67 = load ptr, ptr %9, align 8, !tbaa !3
  %68 = getelementptr inbounds nuw %struct._lv_scale_t, ptr %67, i32 0, i32 6
  %69 = load i64, ptr %68, align 4
  %70 = lshr i64 %69, 32
  %71 = and i64 %70, 1
  %72 = trunc i64 %71 to i32
  %73 = icmp ne i32 %72, 0
  br i1 %73, label %74, label %79

74:                                               ; preds = %64
  %75 = load ptr, ptr %8, align 8, !tbaa !3
  %76 = load ptr, ptr %4, align 8, !tbaa !3
  call void @scale_draw_main(ptr noundef %75, ptr noundef %76)
  %77 = load ptr, ptr %8, align 8, !tbaa !3
  %78 = load ptr, ptr %4, align 8, !tbaa !3
  call void @scale_draw_indicator(ptr noundef %77, ptr noundef %78)
  br label %84

79:                                               ; preds = %64
  %80 = load ptr, ptr %8, align 8, !tbaa !3
  %81 = load ptr, ptr %4, align 8, !tbaa !3
  call void @scale_draw_indicator(ptr noundef %80, ptr noundef %81)
  %82 = load ptr, ptr %8, align 8, !tbaa !3
  %83 = load ptr, ptr %4, align 8, !tbaa !3
  call void @scale_draw_main(ptr noundef %82, ptr noundef %83)
  br label %84

84:                                               ; preds = %79, %74
  br label %85

85:                                               ; preds = %84, %56
  br label %93

86:                                               ; preds = %53
  %87 = load i32, ptr %7, align 4, !tbaa !25
  %88 = icmp eq i32 %87, 27
  br i1 %88, label %89, label %91

89:                                               ; preds = %86
  %90 = load ptr, ptr %4, align 8, !tbaa !3
  call void @lv_event_set_ext_draw_size(ptr noundef %90, i32 noundef 100)
  br label %92

91:                                               ; preds = %86
  br label %92

92:                                               ; preds = %91, %89
  br label %93

93:                                               ; preds = %92, %85
  call void @llvm.lifetime.end.p0(i64 8, ptr %9) #7
  call void @llvm.lifetime.end.p0(i64 8, ptr %8) #7
  call void @llvm.lifetime.end.p0(i64 4, ptr %7) #7
  store i32 0, ptr %6, align 4
  br label %94

94:                                               ; preds = %93, %14
  call void @llvm.lifetime.end.p0(i64 4, ptr %5) #7
  %95 = load i32, ptr %6, align 4
  switch i32 %95, label %97 [
    i32 0, label %96
    i32 1, label %96
  ]

96:                                               ; preds = %94, %94
  ret void

97:                                               ; preds = %94
  unreachable
}