; Function Attrs: nounwind uwtable
define internal void @lv_scale_event(ptr nocapture readnone %0, ptr noundef %1) #0 {
  %3 = tail call i32 @lv_obj_event_base(ptr noundef nonnull @lv_scale_class, ptr noundef %1) #9
  %.not = icmp eq i32 %3, 1
  br i1 %.not, label %4, label %27

4:                                                ; preds = %2
  %5 = tail call i32 @lv_event_get_code(ptr noundef %1) #9
  %6 = tail call ptr @lv_event_get_current_target(ptr noundef %1) #9
  switch i32 %5, label %27 [
    i32 29, label %7
    i32 32, label %17
    i32 27, label %26
  ]

7:                                                ; preds = %4
  %8 = getelementptr inbounds nuw i8, ptr %6, i64 108
  %9 = load i64, ptr %8, align 4
  %10 = and i64 %9, 2147483648
  %11 = icmp eq i64 %10, 0
  br i1 %11, label %12, label %27

12:                                               ; preds = %7
  tail call fastcc void @scale_find_section_tick_idx(ptr noundef nonnull %6)
  tail call fastcc void @scale_calculate_main_compensation(ptr noundef nonnull %6)
  %13 = load i64, ptr %8, align 4
  %14 = and i64 %13, 4294967296
  %.not32 = icmp eq i64 %14, 0
  br i1 %.not32, label %16, label %15

15:                                               ; preds = %12
  tail call fastcc void @scale_draw_main(ptr noundef nonnull %6, ptr noundef %1)
  tail call fastcc void @scale_draw_indicator(ptr noundef nonnull %6, ptr noundef %1)
  br label %27

16:                                               ; preds = %12
  tail call fastcc void @scale_draw_indicator(ptr noundef nonnull %6, ptr noundef %1)
  tail call fastcc void @scale_draw_main(ptr noundef nonnull %6, ptr noundef %1)
  br label %27

17:                                               ; preds = %4
  %18 = getelementptr inbounds nuw i8, ptr %6, i64 108
  %19 = load i64, ptr %18, align 4
  %20 = and i64 %19, 2147483648
  %.not33 = icmp eq i64 %20, 0
  br i1 %.not33, label %27, label %21

21:                                               ; preds = %17
  tail call fastcc void @scale_find_section_tick_idx(ptr noundef nonnull %6)
  tail call fastcc void @scale_calculate_main_compensation(ptr noundef nonnull %6)
  %22 = load i64, ptr %18, align 4
  %23 = and i64 %22, 4294967296
  %.not34 = icmp eq i64 %23, 0
  br i1 %.not34, label %25, label %24

24:                                               ; preds = %21
  tail call fastcc void @scale_draw_main(ptr noundef nonnull %6, ptr noundef %1)
  tail call fastcc void @scale_draw_indicator(ptr noundef nonnull %6, ptr noundef %1)
  br label %27

25:                                               ; preds = %21
  tail call fastcc void @scale_draw_indicator(ptr noundef nonnull %6, ptr noundef %1)
  tail call fastcc void @scale_draw_main(ptr noundef nonnull %6, ptr noundef %1)
  br label %27

26:                                               ; preds = %4
  tail call void @lv_event_set_ext_draw_size(ptr noundef %1, i32 noundef 100) #9
  br label %27

27:                                               ; preds = %15, %16, %7, %24, %25, %17, %26, %4, %2
  ret void
}